target datalayout = "e-m:e-p270:32:32-p271:32:32-p272:64:64-i64:64-i128:128-f80:128-n8:16:32:64-S128"
target triple = "x86_64-pc-linux-gnu"

%struct.anon = type { double, double, double, double, double, double, double, double, double }
%struct._generic_N_Vector = type { ptr, ptr, ptr }
%struct._N_VectorContent_Serial = type { i64, i32, ptr }

; Function Attrs: nounwind uwtable
define internal i32 @res(double noundef %0, ptr noundef %1, ptr noundef %2, ptr noundef %3, ptr noundef %4) #0 {
  %6 = alloca double, align 8
  %7 = alloca ptr, align 8
  %8 = alloca ptr, align 8
  %9 = alloca ptr, align 8
  %10 = alloca ptr, align 8
  %11 = alloca ptr, align 8
  %12 = alloca double, align 8
  %13 = alloca double, align 8
  %14 = alloca double, align 8
  %15 = alloca double, align 8
  %16 = alloca double, align 8
  %17 = alloca double, align 8
  %18 = alloca double, align 8
  %19 = alloca double, align 8
  %20 = alloca double, align 8
  %21 = alloca double, align 8
  %22 = alloca double, align 8
  %23 = alloca double, align 8
  %24 = alloca double, align 8
  %25 = alloca double, align 8
  %26 = alloca double, align 8
  %27 = alloca double, align 8
  %28 = alloca double, align 8
  %29 = alloca double, align 8
  %30 = alloca double, align 8
  %31 = alloca double, align 8
  %32 = alloca double, align 8
  %33 = alloca double, align 8
  %34 = alloca double, align 8
  %35 = alloca double, align 8
  %36 = alloca double, align 8
  %37 = alloca double, align 8
  store double %0, ptr %6, align 8, !tbaa !4
  store ptr %1, ptr %7, align 8, !tbaa !10
  store ptr %2, ptr %8, align 8, !tbaa !10
  store ptr %3, ptr %9, align 8, !tbaa !10
  store ptr %4, ptr %10, align 8, !tbaa !8
  call void @llvm.lifetime.start.p0(i64 8, ptr %11) #6
  call void @llvm.lifetime.start.p0(i64 8, ptr %12) #6
  call void @llvm.lifetime.start.p0(i64 8, ptr %13) #6
  call void @llvm.lifetime.start.p0(i64 8, ptr %14) #6
  call void @llvm.lifetime.start.p0(i64 8, ptr %15) #6
  call void @llvm.lifetime.start.p0(i64 8, ptr %16) #6
  call void @llvm.lifetime.start.p0(i64 8, ptr %17) #6
  call void @llvm.lifetime.start.p0(i64 8, ptr %18) #6
  call void @llvm.lifetime.start.p0(i64 8, ptr %19) #6
  call void @llvm.lifetime.start.p0(i64 8, ptr %20) #6
  call void @llvm.lifetime.start.p0(i64 8, ptr %21) #6
  call void @llvm.lifetime.start.p0(i64 8, ptr %22) #6
  call void @llvm.lifetime.start.p0(i64 8, ptr %23) #6
  call void @llvm.lifetime.start.p0(i64 8, ptr %24) #6
  call void @llvm.lifetime.start.p0(i64 8, ptr %25) #6
  call void @llvm.lifetime.start.p0(i64 8, ptr %26) #6
  call void @llvm.lifetime.start.p0(i64 8, ptr %27) #6
  call void @llvm.lifetime.start.p0(i64 8, ptr %28) #6
  call void @llvm.lifetime.start.p0(i64 8, ptr %29) #6
  call void @llvm.lifetime.start.p0(i64 8, ptr %30) #6
  call void @llvm.lifetime.start.p0(i64 8, ptr %31) #6
  call void @llvm.lifetime.start.p0(i64 8, ptr %32) #6
  call void @llvm.lifetime.start.p0(i64 8, ptr %33) #6
  call void @llvm.lifetime.start.p0(i64 8, ptr %34) #6
  call void @llvm.lifetime.start.p0(i64 8, ptr %35) #6
  call void @llvm.lifetime.start.p0(i64 8, ptr %36) #6
  call void @llvm.lifetime.start.p0(i64 8, ptr %37) #6
  %38 = load ptr, ptr %10, align 8, !tbaa !8
  store ptr %38, ptr %11, align 8, !tbaa !8
  %39 = load ptr, ptr %11, align 8, !tbaa !8
  %40 = getelementptr inbounds nuw %struct.anon, ptr %39, i32 0, i32 0
  %41 = load double, ptr %40, align 8, !tbaa !18
  store double %41, ptr %12, align 8, !tbaa !4
  %42 = load ptr, ptr %11, align 8, !tbaa !8
  %43 = getelementptr inbounds nuw %struct.anon, ptr %42, i32 0, i32 1
  %44 = load double, ptr %43, align 8, !tbaa !20
  store double %44, ptr %13, align 8, !tbaa !4
  %45 = load ptr, ptr %11, align 8, !tbaa !8
  %46 = getelementptr inbounds nuw %struct.anon, ptr %45, i32 0, i32 2
  %47 = load double, ptr %46, align 8, !tbaa !21
  store double %47, ptr %14, align 8, !tbaa !4
  %48 = load ptr, ptr %11, align 8, !tbaa !8
  %49 = getelementptr inbounds nuw %struct.anon, ptr %48, i32 0, i32 3
  %50 = load double, ptr %49, align 8, !tbaa !22
  store double %50, ptr %15, align 8, !tbaa !4
  %51 = load ptr, ptr %11, align 8, !tbaa !8
  %52 = getelementptr inbounds nuw %struct.anon, ptr %51, i32 0, i32 4
  %53 = load double, ptr %52, align 8, !tbaa !23
  store double %53, ptr %16, align 8, !tbaa !4
  %54 = load ptr, ptr %11, align 8, !tbaa !8
  %55 = getelementptr inbounds nuw %struct.anon, ptr %54, i32 0, i32 5
  %56 = load double, ptr %55, align 8, !tbaa !24
  store double %56, ptr %17, align 8, !tbaa !4
  %57 = load ptr, ptr %11, align 8, !tbaa !8
  %58 = getelementptr inbounds nuw %struct.anon, ptr %57, i32 0, i32 6
  %59 = load double, ptr %58, align 8, !tbaa !25
  store double %59, ptr %18, align 8, !tbaa !4
  %60 = load ptr, ptr %11, align 8, !tbaa !8
  %61 = getelementptr inbounds nuw %struct.anon, ptr %60, i32 0, i32 7
  %62 = load double, ptr %61, align 8, !tbaa !26
  store double %62, ptr %19, align 8, !tbaa !4
  %63 = load ptr, ptr %11, align 8, !tbaa !8
  %64 = getelementptr inbounds nuw %struct.anon, ptr %63, i32 0, i32 8
  %65 = load double, ptr %64, align 8, !tbaa !27
  store double %65, ptr %20, align 8, !tbaa !4
  %66 = load ptr, ptr %7, align 8, !tbaa !10
  %67 = getelementptr inbounds nuw %struct._generic_N_Vector, ptr %66, i32 0, i32 0
  %68 = load ptr, ptr %67, align 8, !tbaa !30
  %69 = getelementptr inbounds nuw %struct._N_VectorContent_Serial, ptr %68, i32 0, i32 2
  %70 = load ptr, ptr %69, align 8, !tbaa !33
  %71 = getelementptr inbounds double, ptr %70, i64 0
  %72 = load double, ptr %71, align 8, !tbaa !4
  store double %72, ptr %21, align 8, !tbaa !4
  %73 = load ptr, ptr %7, align 8, !tbaa !10
  %74 = getelementptr inbounds nuw %struct._generic_N_Vector, ptr %73, i32 0, i32 0
  %75 = load ptr, ptr %74, align 8, !tbaa !30
  %76 = getelementptr inbounds nuw %struct._N_VectorContent_Serial, ptr %75, i32 0, i32 2
  %77 = load ptr, ptr %76, align 8, !tbaa !33
  %78 = getelementptr inbounds double, ptr %77, i64 1
  %79 = load double, ptr %78, align 8, !tbaa !4
  store double %79, ptr %22, align 8, !tbaa !4
  %80 = load ptr, ptr %7, align 8, !tbaa !10
  %81 = getelementptr inbounds nuw %struct._generic_N_Vector, ptr %80, i32 0, i32 0
  %82 = load ptr, ptr %81, align 8, !tbaa !30
  %83 = getelementptr inbounds nuw %struct._N_VectorContent_Serial, ptr %82, i32 0, i32 2
  %84 = load ptr, ptr %83, align 8, !tbaa !33
  %85 = getelementptr inbounds double, ptr %84, i64 2
  %86 = load double, ptr %85, align 8, !tbaa !4
  store double %86, ptr %23, align 8, !tbaa !4
  %87 = load ptr, ptr %7, align 8, !tbaa !10
  %88 = getelementptr inbounds nuw %struct._generic_N_Vector, ptr %87, i32 0, i32 0
  %89 = load ptr, ptr %88, align 8, !tbaa !30
  %90 = getelementptr inbounds nuw %struct._N_VectorContent_Serial, ptr %89, i32 0, i32 2
  %91 = load ptr, ptr %90, align 8, !tbaa !33
  %92 = getelementptr inbounds double, ptr %91, i64 3
  %93 = load double, ptr %92, align 8, !tbaa !4
  store double %93, ptr %24, align 8, !tbaa !4
  %94 = load ptr, ptr %7, align 8, !tbaa !10
  %95 = getelementptr inbounds nuw %struct._generic_N_Vector, ptr %94, i32 0, i32 0
  %96 = load ptr, ptr %95, align 8, !tbaa !30
  %97 = getelementptr inbounds nuw %struct._N_VectorContent_Serial, ptr %96, i32 0, i32 2
  %98 = load ptr, ptr %97, align 8, !tbaa !33
  %99 = getelementptr inbounds double, ptr %98, i64 4
  %100 = load double, ptr %99, align 8, !tbaa !4
  store double %100, ptr %25, align 8, !tbaa !4
  %101 = load ptr, ptr %7, align 8, !tbaa !10
  %102 = getelementptr inbounds nuw %struct._generic_N_Vector, ptr %101, i32 0, i32 0
  %103 = load ptr, ptr %102, align 8, !tbaa !30
  %104 = getelementptr inbounds nuw %struct._N_VectorContent_Serial, ptr %103, i32 0, i32 2
  %105 = load ptr, ptr %104, align 8, !tbaa !33
  %106 = getelementptr inbounds double, ptr %105, i64 5
  %107 = load double, ptr %106, align 8, !tbaa !4
  store double %107, ptr %26, align 8, !tbaa !4
  %108 = load ptr, ptr %8, align 8, !tbaa !10
  %109 = getelementptr inbounds nuw %struct._generic_N_Vector, ptr %108, i32 0, i32 0
  %110 = load ptr, ptr %109, align 8, !tbaa !30
  %111 = getelementptr inbounds nuw %struct._N_VectorContent_Serial, ptr %110, i32 0, i32 2
  %112 = load ptr, ptr %111, align 8, !tbaa !33
  %113 = getelementptr inbounds double, ptr %112, i64 0
  %114 = load double, ptr %113, align 8, !tbaa !4
  store double %114, ptr %27, align 8, !tbaa !4
  %115 = load ptr, ptr %8, align 8, !tbaa !10
  %116 = getelementptr inbounds nuw %struct._generic_N_Vector, ptr %115, i32 0, i32 0
  %117 = load ptr, ptr %116, align 8, !tbaa !30
  %118 = getelementptr inbounds nuw %struct._N_VectorContent_Serial, ptr %117, i32 0, i32 2
  %119 = load ptr, ptr %118, align 8, !tbaa !33
  %120 = getelementptr inbounds double, ptr %119, i64 1
  %121 = load double, ptr %120, align 8, !tbaa !4
  store double %121, ptr %28, align 8, !tbaa !4
  %122 = load ptr, ptr %8, align 8, !tbaa !10
  %123 = getelementptr inbounds nuw %struct._generic_N_Vector, ptr %122, i32 0, i32 0
  %124 = load ptr, ptr %123, align 8, !tbaa !30
  %125 = getelementptr inbounds nuw %struct._N_VectorContent_Serial, ptr %124, i32 0, i32 2
  %126 = load ptr, ptr %125, align 8, !tbaa !33
  %127 = getelementptr inbounds double, ptr %126, i64 2
  %128 = load double, ptr %127, align 8, !tbaa !4
  store double %128, ptr %29, align 8, !tbaa !4
  %129 = load ptr, ptr %8, align 8, !tbaa !10
  %130 = getelementptr inbounds nuw %struct._generic_N_Vector, ptr %129, i32 0, i32 0
  %131 = load ptr, ptr %130, align 8, !tbaa !30
  %132 = getelementptr inbounds nuw %struct._N_VectorContent_Serial, ptr %131, i32 0, i32 2
  %133 = load ptr, ptr %132, align 8, !tbaa !33
  %134 = getelementptr inbounds double, ptr %133, i64 3
  %135 = load double, ptr %134, align 8, !tbaa !4
  store double %135, ptr %30, align 8, !tbaa !4
  %136 = load ptr, ptr %8, align 8, !tbaa !10
  %137 = getelementptr inbounds nuw %struct._generic_N_Vector, ptr %136, i32 0, i32 0
  %138 = load ptr, ptr %137, align 8, !tbaa !30
  %139 = getelementptr inbounds nuw %struct._N_VectorContent_Serial, ptr %138, i32 0, i32 2
  %140 = load ptr, ptr %139, align 8, !tbaa !33
  %141 = getelementptr inbounds double, ptr %140, i64 4
  %142 = load double, ptr %141, align 8, !tbaa !4
  store double %142, ptr %31, align 8, !tbaa !4
  %143 = load double, ptr %12, align 8, !tbaa !4
  %144 = load double, ptr %21, align 8, !tbaa !4
  %145 = call double @SUNRpowerI(double noundef %144, i32 noundef 4)
  %146 = fmul double %143, %145
  %147 = load double, ptr %22, align 8, !tbaa !4
  %148 = fcmp ole double %147, 0.000000e+00
  br i1 %148, label %149, label %150

149:                                              ; preds = %5
  br label %153

150:                                              ; preds = %5
  %151 = load double, ptr %22, align 8, !tbaa !4
  %152 = call double @sqrt(double noundef %151) #6, !tbaa !16
  br label %153

153:                                              ; preds = %150, %149
  %154 = phi double [ 0.000000e+00, %149 ], [ %152, %150 ]
  %155 = fmul double %146, %154
  store double %155, ptr %32, align 8, !tbaa !4
  %156 = load double, ptr %13, align 8, !tbaa !4
  %157 = load double, ptr %23, align 8, !tbaa !4
  %158 = fmul double %156, %157
  %159 = load double, ptr %24, align 8, !tbaa !4
  %160 = fmul double %158, %159
  store double %160, ptr %33, align 8, !tbaa !4
  %161 = load double, ptr %13, align 8, !tbaa !4
  %162 = load double, ptr %16, align 8, !tbaa !4
  %163 = fdiv double %161, %162
  %164 = load double, ptr %21, align 8, !tbaa !4
  %165 = fmul double %163, %164
  %166 = load double, ptr %25, align 8, !tbaa !4
  %167 = fmul double %165, %166
  store double %167, ptr %34, align 8, !tbaa !4
  %168 = load double, ptr %14, align 8, !tbaa !4
  %169 = load double, ptr %21, align 8, !tbaa !4
  %170 = fmul double %168, %169
  %171 = load double, ptr %24, align 8, !tbaa !4
  %172 = fmul double %170, %171
  %173 = load double, ptr %24, align 8, !tbaa !4
  %174 = fmul double %172, %173
  store double %174, ptr %35, align 8, !tbaa !4
  %175 = load double, ptr %15, align 8, !tbaa !4
  %176 = load double, ptr %26, align 8, !tbaa !4
  %177 = fmul double %175, %176
  %178 = load double, ptr %26, align 8, !tbaa !4
  %179 = fmul double %177, %178
  %180 = load double, ptr %22, align 8, !tbaa !4
  %181 = fcmp ole double %180, 0.000000e+00
  br i1 %181, label %182, label %183

182:                                              ; preds = %153
  br label %186

183:                                              ; preds = %153
  %184 = load double, ptr %22, align 8, !tbaa !4
  %185 = call double @sqrt(double noundef %184) #6, !tbaa !16
  br label %186

186:                                              ; preds = %183, %182
  %187 = phi double [ 0.000000e+00, %182 ], [ %185, %183 ]
  %188 = fmul double %179, %187
  store double %188, ptr %36, align 8, !tbaa !4
  %189 = load double, ptr %17, align 8, !tbaa !4
  %190 = load double, ptr %19, align 8, !tbaa !4
  %191 = load double, ptr %20, align 8, !tbaa !4
  %192 = fdiv double %190, %191
  %193 = load double, ptr %22, align 8, !tbaa !4
  %194 = fsub double %192, %193
  %195 = fmul double %189, %194
  store double %195, ptr %37, align 8, !tbaa !4
  %196 = load double, ptr %27, align 8, !tbaa !4
  %197 = load double, ptr %32, align 8, !tbaa !4
  %198 = call double @llvm.fmuladd.f64(double 2.000000e+00, double %197, double %196)
  %199 = load double, ptr %33, align 8, !tbaa !4
  %200 = fsub double %198, %199
  %201 = load double, ptr %34, align 8, !tbaa !4
  %202 = fadd double %200, %201
  %203 = load double, ptr %35, align 8, !tbaa !4
  %204 = fadd double %202, %203
  %205 = load ptr, ptr %9, align 8, !tbaa !10
  %206 = getelementptr inbounds nuw %struct._generic_N_Vector, ptr %205, i32 0, i32 0
  %207 = load ptr, ptr %206, align 8, !tbaa !30
  %208 = getelementptr inbounds nuw %struct._N_VectorContent_Serial, ptr %207, i32 0, i32 2
  %209 = load ptr, ptr %208, align 8, !tbaa !33
  %210 = getelementptr inbounds double, ptr %209, i64 0
  store double %204, ptr %210, align 8, !tbaa !4
  %211 = load double, ptr %28, align 8, !tbaa !4
  %212 = load double, ptr %32, align 8, !tbaa !4
  %213 = call double @llvm.fmuladd.f64(double 5.000000e-01, double %212, double %211)
  %214 = load double, ptr %35, align 8, !tbaa !4
  %215 = fadd double %213, %214
  %216 = load double, ptr %36, align 8, !tbaa !4
  %217 = call double @llvm.fmuladd.f64(double 5.000000e-01, double %216, double %215)
  %218 = load double, ptr %37, align 8, !tbaa !4
  %219 = fsub double %217, %218
  %220 = load ptr, ptr %9, align 8, !tbaa !10
  %221 = getelementptr inbounds nuw %struct._generic_N_Vector, ptr %220, i32 0, i32 0
  %222 = load ptr, ptr %221, align 8, !tbaa !30
  %223 = getelementptr inbounds nuw %struct._N_VectorContent_Serial, ptr %222, i32 0, i32 2
  %224 = load ptr, ptr %223, align 8, !tbaa !33
  %225 = getelementptr inbounds double, ptr %224, i64 1
  store double %219, ptr %225, align 8, !tbaa !4
  %226 = load double, ptr %29, align 8, !tbaa !4
  %227 = load double, ptr %32, align 8, !tbaa !4
  %228 = fsub double %226, %227
  %229 = load double, ptr %33, align 8, !tbaa !4
  %230 = fadd double %228, %229
  %231 = load double, ptr %34, align 8, !tbaa !4
  %232 = fsub double %230, %231
  %233 = load ptr, ptr %9, align 8, !tbaa !10
  %234 = getelementptr inbounds nuw %struct._generic_N_Vector, ptr %233, i32 0, i32 0
  %235 = load ptr, ptr %234, align 8, !tbaa !30
  %236 = getelementptr inbounds nuw %struct._N_VectorContent_Serial, ptr %235, i32 0, i32 2
  %237 = load ptr, ptr %236, align 8, !tbaa !33
  %238 = getelementptr inbounds double, ptr %237, i64 2
  store double %232, ptr %238, align 8, !tbaa !4
  %239 = load double, ptr %30, align 8, !tbaa !4
  %240 = load double, ptr %33, align 8, !tbaa !4
  %241 = fadd double %239, %240
  %242 = load double, ptr %34, align 8, !tbaa !4
  %243 = fsub double %241, %242
  %244 = load double, ptr %35, align 8, !tbaa !4
  %245 = call double @llvm.fmuladd.f64(double 2.000000e+00, double %244, double %243)
  %246 = load ptr, ptr %9, align 8, !tbaa !10
  %247 = getelementptr inbounds nuw %struct._generic_N_Vector, ptr %246, i32 0, i32 0
  %248 = load ptr, ptr %247, align 8, !tbaa !30
  %249 = getelementptr inbounds nuw %struct._N_VectorContent_Serial, ptr %248, i32 0, i32 2
  %250 = load ptr, ptr %249, align 8, !tbaa !33
  %251 = getelementptr inbounds double, ptr %250, i64 3
  store double %245, ptr %251, align 8, !tbaa !4
  %252 = load double, ptr %31, align 8, !tbaa !4
  %253 = load double, ptr %33, align 8, !tbaa !4
  %254 = fsub double %252, %253
  %255 = load double, ptr %34, align 8, !tbaa !4
  %256 = fadd double %254, %255
  %257 = load double, ptr %36, align 8, !tbaa !4
  %258 = fsub double %256, %257
  %259 = load ptr, ptr %9, align 8, !tbaa !10
  %260 = getelementptr inbounds nuw %struct._generic_N_Vector, ptr %259, i32 0, i32 0
  %261 = load ptr, ptr %260, align 8, !tbaa !30
  %262 = getelementptr inbounds nuw %struct._N_VectorContent_Serial, ptr %261, i32 0, i32 2
  %263 = load ptr, ptr %262, align 8, !tbaa !33
  %264 = getelementptr inbounds double, ptr %263, i64 4
  store double %258, ptr %264, align 8, !tbaa !4
  %265 = load double, ptr %18, align 8, !tbaa !4
  %266 = load double, ptr %21, align 8, !tbaa !4
  %267 = fmul double %265, %266
  %268 = load double, ptr %24, align 8, !tbaa !4
  %269 = load double, ptr %26, align 8, !tbaa !4
  %270 = fneg double %269
  %271 = call double @llvm.fmuladd.f64(double %267, double %268, double %270)
  %272 = load ptr, ptr %9, align 8, !tbaa !10
  %273 = getelementptr inbounds nuw %struct._generic_N_Vector, ptr %272, i32 0, i32 0
  %274 = load ptr, ptr %273, align 8, !tbaa !30
  %275 = getelementptr inbounds nuw %struct._N_VectorContent_Serial, ptr %274, i32 0, i32 2
  %276 = load ptr, ptr %275, align 8, !tbaa !33
  %277 = getelementptr inbounds double, ptr %276, i64 5
  store double %271, ptr %277, align 8, !tbaa !4
  call void @llvm.lifetime.end.p0(i64 8, ptr %37) #6
  call void @llvm.lifetime.end.p0(i64 8, ptr %36) #6
  call void @llvm.lifetime.end.p0(i64 8, ptr %35) #6
  call void @llvm.lifetime.end.p0(i64 8, ptr %34) #6
  call void @llvm.lifetime.end.p0(i64 8, ptr %33) #6
  call void @llvm.lifetime.end.p0(i64 8, ptr %32) #6
  call void @llvm.lifetime.end.p0(i64 8, ptr %31) #6
  call void @llvm.lifetime.end.p0(i64 8, ptr %30) #6
  call void @llvm.lifetime.end.p0(i64 8, ptr %29) #6
  call void @llvm.lifetime.end.p0(i64 8, ptr %28) #6
  call void @llvm.lifetime.end.p0(i64 8, ptr %27) #6
  call void @llvm.lifetime.end.p0(i64 8, ptr %26) #6
  call void @llvm.lifetime.end.p0(i64 8, ptr %25) #6
  call void @llvm.lifetime.end.p0(i64 8, ptr %24) #6
  call void @llvm.lifetime.end.p0(i64 8, ptr %23) #6
  call void @llvm.lifetime.end.p0(i64 8, ptr %22) #6
  call void @llvm.lifetime.end.p0(i64 8, ptr %21) #6
  call void @llvm.lifetime.end.p0(i64 8, ptr %20) #6
  call void @llvm.lifetime.end.p0(i64 8, ptr %19) #6
  call void @llvm.lifetime.end.p0(i64 8, ptr %18) #6
  call void @llvm.lifetime.end.p0(i64 8, ptr %17) #6
  call void @llvm.lifetime.end.p0(i64 8, ptr %16) #6
  call void @llvm.lifetime.end.p0(i64 8, ptr %15) #6
  call void @llvm.lifetime.end.p0(i64 8, ptr %14) #6
  call void @llvm.lifetime.end.p0(i64 8, ptr %13) #6
  call void @llvm.lifetime.end.p0(i64 8, ptr %12) #6
  call void @llvm.lifetime.end.p0(i64 8, ptr %11) #6
  ret i32 0
}