; Function Attrs: nounwind uwtable
define internal noundef i32 @res(double %0, ptr noundef readonly captures(none) %1, ptr noundef readonly captures(none) %2, ptr noundef readonly captures(none) %3, ptr noundef readonly captures(none) %4) #0 {
  %6 = load double, ptr %4, align 8, !tbaa !9
  %7 = getelementptr inbounds nuw i8, ptr %4, i64 8
  %8 = load double, ptr %7, align 8, !tbaa !12
  %9 = getelementptr inbounds nuw i8, ptr %4, i64 16
  %10 = load double, ptr %9, align 8, !tbaa !13
  %11 = getelementptr inbounds nuw i8, ptr %4, i64 24
  %12 = load double, ptr %11, align 8, !tbaa !14
  %13 = getelementptr inbounds nuw i8, ptr %4, i64 32
  %14 = load double, ptr %13, align 8, !tbaa !15
  %15 = getelementptr inbounds nuw i8, ptr %4, i64 40
  %16 = load double, ptr %15, align 8, !tbaa !16
  %17 = getelementptr inbounds nuw i8, ptr %4, i64 48
  %18 = load double, ptr %17, align 8, !tbaa !17
  %19 = getelementptr inbounds nuw i8, ptr %4, i64 56
  %20 = load double, ptr %19, align 8, !tbaa !18
  %21 = getelementptr inbounds nuw i8, ptr %4, i64 64
  %22 = load double, ptr %21, align 8, !tbaa !19
  %23 = load ptr, ptr %1, align 8, !tbaa !22
  %24 = getelementptr inbounds nuw i8, ptr %23, i64 16
  %25 = load ptr, ptr %24, align 8, !tbaa !25
  %26 = load double, ptr %25, align 8, !tbaa !30
  %27 = getelementptr inbounds nuw i8, ptr %25, i64 8
  %28 = load double, ptr %27, align 8, !tbaa !30
  %29 = getelementptr inbounds nuw i8, ptr %25, i64 16
  %30 = load double, ptr %29, align 8, !tbaa !30
  %31 = getelementptr inbounds nuw i8, ptr %25, i64 24
  %32 = load double, ptr %31, align 8, !tbaa !30
  %33 = getelementptr inbounds nuw i8, ptr %25, i64 32
  %34 = load double, ptr %33, align 8, !tbaa !30
  %35 = getelementptr inbounds nuw i8, ptr %25, i64 40
  %36 = load double, ptr %35, align 8, !tbaa !30
  %37 = load ptr, ptr %2, align 8, !tbaa !22
  %38 = getelementptr inbounds nuw i8, ptr %37, i64 16
  %39 = load ptr, ptr %38, align 8, !tbaa !25
  %40 = load double, ptr %39, align 8, !tbaa !30
  %41 = getelementptr inbounds nuw i8, ptr %39, i64 8
  %42 = load double, ptr %41, align 8, !tbaa !30
  %43 = getelementptr inbounds nuw i8, ptr %39, i64 16
  %44 = load double, ptr %43, align 8, !tbaa !30
  %45 = getelementptr inbounds nuw i8, ptr %39, i64 24
  %46 = load double, ptr %45, align 8, !tbaa !30
  %47 = getelementptr inbounds nuw i8, ptr %39, i64 32
  %48 = load double, ptr %47, align 8, !tbaa !30
  %49 = tail call double @SUNRpowerI(double noundef %26, i32 noundef 4) #11
  %50 = fcmp ugt double %28, 0.000000e+00
  br i1 %50, label %51, label %.thread

51:                                               ; preds = %5
  %52 = tail call double @sqrt(double noundef %28) #11, !tbaa !32
  %53 = tail call double @sqrt(double noundef %28) #11, !tbaa !32
  br label %.thread

.thread:                                          ; preds = %5, %51
  %54 = phi double [ %52, %51 ], [ 0.000000e+00, %5 ]
  %55 = phi double [ %53, %51 ], [ 0.000000e+00, %5 ]
  %56 = fmul double %12, %36
  %57 = fmul double %36, %56
  %58 = fmul double %10, %26
  %59 = fmul double %58, %32
  %60 = fmul double %32, %59
  %61 = fdiv double %8, %14
  %62 = fmul double %61, %26
  %63 = fmul double %62, %34
  %64 = fmul double %8, %30
  %65 = fmul double %64, %32
  %66 = fmul double %6, %49
  %67 = fmul double %66, %54
  %68 = fmul double %57, %55
  %69 = fdiv double %20, %22
  %70 = fsub double %69, %28
  %71 = fmul double %16, %70
  %72 = tail call double @llvm.fmuladd.f64(double %67, double 2.000000e+00, double %40)
  %73 = fsub double %72, %65
  %74 = fadd double %63, %73
  %75 = fadd double %60, %74
  %76 = load ptr, ptr %3, align 8, !tbaa !22
  %77 = getelementptr inbounds nuw i8, ptr %76, i64 16
  %78 = load ptr, ptr %77, align 8, !tbaa !25
  store double %75, ptr %78, align 8, !tbaa !30
  %79 = tail call double @llvm.fmuladd.f64(double %67, double 5.000000e-01, double %42)
  %80 = fadd double %60, %79
  %81 = tail call double @llvm.fmuladd.f64(double %68, double 5.000000e-01, double %80)
  %82 = fsub double %81, %71
  %83 = getelementptr inbounds nuw i8, ptr %78, i64 8
  store double %82, ptr %83, align 8, !tbaa !30
  %84 = fsub double %44, %67
  %85 = fadd double %65, %84
  %86 = fsub double %85, %63
  %87 = getelementptr inbounds nuw i8, ptr %78, i64 16
  store double %86, ptr %87, align 8, !tbaa !30
  %88 = fadd double %65, %46
  %89 = fsub double %88, %63
  %90 = tail call double @llvm.fmuladd.f64(double %60, double 2.000000e+00, double %89)
  %91 = getelementptr inbounds nuw i8, ptr %78, i64 24
  store double %90, ptr %91, align 8, !tbaa !30
  %92 = fsub double %48, %65
  %93 = fadd double %63, %92
  %94 = fsub double %93, %68
  %95 = getelementptr inbounds nuw i8, ptr %78, i64 32
  store double %94, ptr %95, align 8, !tbaa !30
  %96 = fmul double %18, %26
  %97 = fneg double %36
  %98 = tail call double @llvm.fmuladd.f64(double %96, double %32, double %97)
  %99 = getelementptr inbounds nuw i8, ptr %78, i64 40
  store double %98, ptr %99, align 8, !tbaa !30
  ret i32 0
}